target datalayout = "e-m:e-p270:32:32-p271:32:32-p272:64:64-i64:64-i128:128-f80:128-n8:16:32:64-S128"
target triple = "x86_64-pc-linux-gnu"

%struct.Color = type { i8, i8, i8, i8 }
%struct.Vector2 = type { float, float }

; Function Attrs: nounwind uwtable
define void @DrawTriangleStrip(ptr noundef %0, i32 noundef %1, i32 %2) #2 {
  %4 = alloca %struct.Color, align 1
  %5 = alloca ptr, align 8
  %6 = alloca i32, align 4
  %7 = alloca i32, align 4
  store i32 %2, ptr %4, align 1
  store ptr %0, ptr %5, align 8
  store i32 %1, ptr %6, align 4
  %8 = load i32, ptr %6, align 4
  %9 = icmp sge i32 %8, 3
  br i1 %9, label %10, label %115

10:                                               ; preds = %3
  call void @rlBegin(i32 noundef 4)
  %11 = getelementptr inbounds nuw %struct.Color, ptr %4, i32 0, i32 0
  %12 = load i8, ptr %11, align 1
  %13 = getelementptr inbounds nuw %struct.Color, ptr %4, i32 0, i32 1
  %14 = load i8, ptr %13, align 1
  %15 = getelementptr inbounds nuw %struct.Color, ptr %4, i32 0, i32 2
  %16 = load i8, ptr %15, align 1
  %17 = getelementptr inbounds nuw %struct.Color, ptr %4, i32 0, i32 3
  %18 = load i8, ptr %17, align 1
  call void @rlColor4ub(i8 noundef zeroext %12, i8 noundef zeroext %14, i8 noundef zeroext %16, i8 noundef zeroext %18)
  call void @llvm.lifetime.start.p0(i64 4, ptr %7) #8
  store i32 2, ptr %7, align 4
  br label %19

19:                                               ; preds = %111, %10
  %20 = load i32, ptr %7, align 4
  %21 = load i32, ptr %6, align 4
  %22 = icmp slt i32 %20, %21
  br i1 %22, label %24, label %23

23:                                               ; preds = %19
  call void @llvm.lifetime.end.p0(i64 4, ptr %7) #8
  br label %114

24:                                               ; preds = %19
  %25 = load i32, ptr %7, align 4
  %26 = srem i32 %25, 2
  %27 = icmp eq i32 %26, 0
  br i1 %27, label %28, label %69

28:                                               ; preds = %24
  %29 = load ptr, ptr %5, align 8
  %30 = load i32, ptr %7, align 4
  %31 = sext i32 %30 to i64
  %32 = getelementptr inbounds %struct.Vector2, ptr %29, i64 %31
  %33 = getelementptr inbounds nuw %struct.Vector2, ptr %32, i32 0, i32 0
  %34 = load float, ptr %33, align 4
  %35 = load ptr, ptr %5, align 8
  %36 = load i32, ptr %7, align 4
  %37 = sext i32 %36 to i64
  %38 = getelementptr inbounds %struct.Vector2, ptr %35, i64 %37
  %39 = getelementptr inbounds nuw %struct.Vector2, ptr %38, i32 0, i32 1
  %40 = load float, ptr %39, align 4
  call void @rlVertex2f(float noundef %34, float noundef %40)
  %41 = load ptr, ptr %5, align 8
  %42 = load i32, ptr %7, align 4
  %43 = sub nsw i32 %42, 2
  %44 = sext i32 %43 to i64
  %45 = getelementptr inbounds %struct.Vector2, ptr %41, i64 %44
  %46 = getelementptr inbounds nuw %struct.Vector2, ptr %45, i32 0, i32 0
  %47 = load float, ptr %46, align 4
  %48 = load ptr, ptr %5, align 8
  %49 = load i32, ptr %7, align 4
  %50 = sub nsw i32 %49, 2
  %51 = sext i32 %50 to i64
  %52 = getelementptr inbounds %struct.Vector2, ptr %48, i64 %51
  %53 = getelementptr inbounds nuw %struct.Vector2, ptr %52, i32 0, i32 1
  %54 = load float, ptr %53, align 4
  call void @rlVertex2f(float noundef %47, float noundef %54)
  %55 = load ptr, ptr %5, align 8
  %56 = load i32, ptr %7, align 4
  %57 = sub nsw i32 %56, 1
  %58 = sext i32 %57 to i64
  %59 = getelementptr inbounds %struct.Vector2, ptr %55, i64 %58
  %60 = getelementptr inbounds nuw %struct.Vector2, ptr %59, i32 0, i32 0
  %61 = load float, ptr %60, align 4
  %62 = load ptr, ptr %5, align 8
  %63 = load i32, ptr %7, align 4
  %64 = sub nsw i32 %63, 1
  %65 = sext i32 %64 to i64
  %66 = getelementptr inbounds %struct.Vector2, ptr %62, i64 %65
  %67 = getelementptr inbounds nuw %struct.Vector2, ptr %66, i32 0, i32 1
  %68 = load float, ptr %67, align 4
  call void @rlVertex2f(float noundef %61, float noundef %68)
  br label %110

69:                                               ; preds = %24
  %70 = load ptr, ptr %5, align 8
  %71 = load i32, ptr %7, align 4
  %72 = sext i32 %71 to i64
  %73 = getelementptr inbounds %struct.Vector2, ptr %70, i64 %72
  %74 = getelementptr inbounds nuw %struct.Vector2, ptr %73, i32 0, i32 0
  %75 = load float, ptr %74, align 4
  %76 = load ptr, ptr %5, align 8
  %77 = load i32, ptr %7, align 4
  %78 = sext i32 %77 to i64
  %79 = getelementptr inbounds %struct.Vector2, ptr %76, i64 %78
  %80 = getelementptr inbounds nuw %struct.Vector2, ptr %79, i32 0, i32 1
  %81 = load float, ptr %80, align 4
  call void @rlVertex2f(float noundef %75, float noundef %81)
  %82 = load ptr, ptr %5, align 8
  %83 = load i32, ptr %7, align 4
  %84 = sub nsw i32 %83, 1
  %85 = sext i32 %84 to i64
  %86 = getelementptr inbounds %struct.Vector2, ptr %82, i64 %85
  %87 = getelementptr inbounds nuw %struct.Vector2, ptr %86, i32 0, i32 0
  %88 = load float, ptr %87, align 4
  %89 = load ptr, ptr %5, align 8
  %90 = load i32, ptr %7, align 4
  %91 = sub nsw i32 %90, 1
  %92 = sext i32 %91 to i64
  %93 = getelementptr inbounds %struct.Vector2, ptr %89, i64 %92
  %94 = getelementptr inbounds nuw %struct.Vector2, ptr %93, i32 0, i32 1
  %95 = load float, ptr %94, align 4
  call void @rlVertex2f(float noundef %88, float noundef %95)
  %96 = load ptr, ptr %5, align 8
  %97 = load i32, ptr %7, align 4
  %98 = sub nsw i32 %97, 2
  %99 = sext i32 %98 to i64
  %100 = getelementptr inbounds %struct.Vector2, ptr %96, i64 %99
  %101 = getelementptr inbounds nuw %struct.Vector2, ptr %100, i32 0, i32 0
  %102 = load float, ptr %101, align 4
  %103 = load ptr, ptr %5, align 8
  %104 = load i32, ptr %7, align 4
  %105 = sub nsw i32 %104, 2
  %106 = sext i32 %105 to i64
  %107 = getelementptr inbounds %struct.Vector2, ptr %103, i64 %106
  %108 = getelementptr inbounds nuw %struct.Vector2, ptr %107, i32 0, i32 1
  %109 = load float, ptr %108, align 4
  call void @rlVertex2f(float noundef %102, float noundef %109)
  br label %110

110:                                              ; preds = %69, %28
  br label %111

111:                                              ; preds = %110
  %112 = load i32, ptr %7, align 4
  %113 = add nsw i32 %112, 1
  store i32 %113, ptr %7, align 4
  br label %19

114:                                              ; preds = %23
  call void @rlEnd()
  br label %115

115:                                              ; preds = %114, %3
  ret void
}